; Function Attrs: mustprogress nounwind uwtable
define hidden void @_ZNK10ZStatPhase7log_endE15LogTargetHandleRK12TimeIntervalI30CompositeCounterRepresentation29CompositeElapsedCounterSourceEb(ptr nocapture noundef nonnull readonly align 8 dereferenceable(48) %0, i32 %1, ptr %2, ptr nocapture noundef nonnull readonly align 8 dereferenceable(16) %3, i1 noundef zeroext %4) local_unnamed_addr #0 align 2 {
  %6 = alloca %class.LogTargetHandle, align 8
  store i32 %1, ptr %6, align 8
  %7 = getelementptr inbounds i8, ptr %6, i64 8
  store ptr %2, ptr %7, align 8
  %8 = getelementptr inbounds i8, ptr %2, i64 40
  %9 = zext i32 %1 to i64
  %10 = getelementptr inbounds [6 x ptr], ptr %8, i64 0, i64 %9
  %11 = load volatile ptr, ptr %10, align 8
  %.not = icmp eq ptr %11, null
  br i1 %.not, label %_ZN12ResourceMarkD2Ev.exit, label %12

12:                                               ; preds = %5
  br i1 %4, label %13, label %39

13:                                               ; preds = %12
  %14 = tail call align 8 ptr @llvm.threadlocal.address.p0(ptr align 8 @_ZN6Thread12_thr_currentE)
  %15 = load ptr, ptr %14, align 8
  %16 = getelementptr inbounds i8, ptr %15, i64 800
  %17 = load ptr, ptr %16, align 8
  %18 = getelementptr inbounds i8, ptr %17, i64 24
  %19 = load ptr, ptr %18, align 8
  %20 = getelementptr inbounds i8, ptr %17, i64 32
  %21 = load ptr, ptr %20, align 8
  %22 = getelementptr inbounds i8, ptr %17, i64 40
  %23 = load ptr, ptr %22, align 8
  %24 = getelementptr inbounds i8, ptr %17, i64 8
  %25 = load i64, ptr %24, align 8
  %26 = getelementptr inbounds i8, ptr %0, i64 16
  %27 = load ptr, ptr %26, align 8
  %28 = load ptr, ptr %15, align 8
  %29 = getelementptr inbounds i8, ptr %28, i64 168
  %30 = load ptr, ptr %29, align 8
  %31 = tail call noundef ptr %30(ptr noundef nonnull align 8 dereferenceable(888) %15) #20
  %32 = load i64, ptr %3, align 8
  %33 = tail call noundef double @_ZN10TimeHelper17counter_to_millisEl(i64 noundef %32) #20
  call void (ptr, ptr, ...) @_ZN15LogTargetHandle5printEPKcz(ptr noundef nonnull align 8 dereferenceable(16) %6, ptr noundef nonnull @.str.13, ptr noundef %27, ptr noundef %31, double noundef %33)
  %34 = load ptr, ptr %19, align 8
  %.not.i.i.i.i = icmp eq ptr %34, null
  br i1 %.not.i.i.i.i, label %36, label %35

35:                                               ; preds = %13
  call void @_ZN5Arena17set_size_in_bytesEm(ptr noundef nonnull align 8 dereferenceable(48) %17, i64 noundef %25) #20
  call void @_ZN5Chunk9next_chopEPS_(ptr noundef nonnull %19) #20
  br label %36

36:                                               ; preds = %35, %13
  %37 = load ptr, ptr %20, align 8
  %.not8.i.i.i.i = icmp eq ptr %37, %21
  br i1 %.not8.i.i.i.i, label %_ZN12ResourceMarkD2Ev.exit, label %38

38:                                               ; preds = %36
  store ptr %19, ptr %18, align 8
  store ptr %21, ptr %20, align 8
  store ptr %23, ptr %22, align 8
  br label %_ZN12ResourceMarkD2Ev.exit

39:                                               ; preds = %12
  %40 = getelementptr inbounds i8, ptr %0, i64 16
  %41 = load ptr, ptr %40, align 8
  %42 = load i64, ptr %3, align 8
  %43 = tail call noundef double @_ZN10TimeHelper17counter_to_millisEl(i64 noundef %42) #20
  call void (ptr, ptr, ...) @_ZN15LogTargetHandle5printEPKcz(ptr noundef nonnull align 8 dereferenceable(16) %6, ptr noundef nonnull @.str.14, ptr noundef %41, double noundef %43)
  br label %_ZN12ResourceMarkD2Ev.exit

_ZN12ResourceMarkD2Ev.exit:                       ; preds = %38, %36, %5, %39
  ret void
}